; Function Attrs: mustprogress nounwind uwtable
define dso_local { i64, i64 } @_ZNSt3__14__fs10filesystem16_FilesystemClock3nowEv() local_unnamed_addr #0 align 2 personality ptr @__gxx_personality_v0 {
  %1 = alloca %struct.timespec, align 8
  call void @llvm.lifetime.start.p0(i64 16, ptr nonnull %1) #7
  %2 = call i32 @clock_gettime(i32 noundef 0, ptr noundef nonnull %1) #7
  %.not = icmp eq i32 %2, 0
  br i1 %.not, label %7, label %3

3:                                                ; preds = %0
  %4 = tail call ptr @__errno_location() #8
  %5 = load i32, ptr %4, align 4, !tbaa !4
  invoke void @_ZNSt3__120__throw_system_errorEiPKc(i32 noundef %5, ptr noundef nonnull @.str) #9
          to label %6 unwind label %14

6:                                                ; preds = %3
  unreachable

7:                                                ; preds = %0
  %8 = load i64, ptr %1, align 8, !tbaa !8
  %9 = sext i64 %8 to i128
  %10 = getelementptr inbounds nuw i8, ptr %1, i64 8
  %11 = load i64, ptr %10, align 8, !tbaa !8
  %12 = mul nsw i128 %9, 1000000000
  %.sroa.01.0.insert.insert = sext i64 %11 to i128
  %13 = add nsw i128 %12, %.sroa.01.0.insert.insert
  %.sroa.010.0.extract.trunc.i = trunc i128 %13 to i64
  %.sroa.2.0.extract.shift.i = lshr i128 %13, 64
  %.sroa.2.0.extract.trunc.i = trunc nuw i128 %.sroa.2.0.extract.shift.i to i64
  %.fca.0.insert.i = insertvalue { i64, i64 } poison, i64 %.sroa.010.0.extract.trunc.i, 0
  %.fca.1.insert.i = insertvalue { i64, i64 } %.fca.0.insert.i, i64 %.sroa.2.0.extract.trunc.i, 1
  call void @llvm.lifetime.end.p0(i64 16, ptr nonnull %1) #7
  ret { i64, i64 } %.fca.1.insert.i

14:                                               ; preds = %3
  %15 = landingpad { ptr, i32 }
          catch ptr null
  %16 = extractvalue { ptr, i32 } %15, 0
  call void @__clang_call_terminate(ptr %16) #10
  unreachable
}